; Function Attrs: nounwind uwtable
define hidden void @X11_ShowScreenKeyboard(ptr noundef readonly captures(none) %0, ptr noundef readnone captures(none) %1, i32 noundef %2) local_unnamed_addr #0 {
  %4 = alloca [128 x i8], align 16
  %5 = getelementptr inbounds nuw i8, ptr %0, i64 1656
  %6 = load ptr, ptr %5, align 8
  %7 = getelementptr inbounds nuw i8, ptr %6, i64 1760
  %8 = load i8, ptr %7, align 8, !range !15, !noundef !16
  %9 = trunc nuw i8 %8 to i1
  br i1 %9, label %10, label %20

10:                                               ; preds = %3
  call void @llvm.lifetime.start.p0(i64 128, ptr nonnull %4) #9
  %11 = tail call i32 @SDL_GetTextInputType(i32 noundef %2) #9
  %switch.tableidx = add i32 %11, -2
  %12 = icmp ult i32 %switch.tableidx, 7
  %switch.maskindex = trunc i32 %switch.tableidx to i8
  %switch.shifted = lshr i8 113, %switch.maskindex
  %switch.lobit = trunc i8 %switch.shifted to i1
  %or.cond = select i1 %12, i1 %switch.lobit, i1 false
  br i1 %or.cond, label %switch.lookup, label %13

13:                                               ; preds = %10
  %14 = tail call zeroext i1 @SDL_GetTextInputMultiline(i32 noundef %2) #9
  %. = zext i1 %14 to i32
  br label %16

switch.lookup:                                    ; preds = %10
  %15 = zext nneg i32 %switch.tableidx to i64
  %switch.gep = getelementptr inbounds nuw [7 x i32], ptr @switch.table.X11_ShowScreenKeyboard, i64 0, i64 %15
  %switch.load = load i32, ptr %switch.gep, align 4
  br label %16

16:                                               ; preds = %switch.lookup, %13
  %.0 = phi i32 [ %., %13 ], [ %switch.load, %switch.lookup ]
  %17 = call i32 (ptr, i64, ptr, ...) @SDL_snprintf_REAL(ptr noundef nonnull %4, i64 noundef 128, ptr noundef nonnull @.str.12, i32 noundef %.0) #9
  %18 = call zeroext i1 @SDL_OpenURL_REAL(ptr noundef nonnull %4) #9
  %19 = getelementptr inbounds nuw i8, ptr %6, i64 1761
  store i8 1, ptr %19, align 1
  call void @llvm.lifetime.end.p0(i64 128, ptr nonnull %4) #9
  br label %20

20:                                               ; preds = %16, %3
  ret void
}